target datalayout = "e-m:e-p270:32:32-p271:32:32-p272:64:64-i64:64-i128:128-f80:128-n8:16:32:64-S128"
target triple = "x86_64-pc-linux-gnu"

; Function Attrs: nounwind uwtable
define internal void @conv_AV_SAMPLE_FMT_S64_to_AV_SAMPLE_FMT_U8(ptr noundef %0, ptr noundef %1, i32 noundef %2, i32 noundef %3, ptr noundef %4) #0 {
  %6 = alloca ptr, align 8
  %7 = alloca ptr, align 8
  %8 = alloca i32, align 4
  %9 = alloca i32, align 4
  %10 = alloca ptr, align 8
  %11 = alloca ptr, align 8
  store ptr %0, ptr %6, align 8, !tbaa !22
  store ptr %1, ptr %7, align 8, !tbaa !22
  store i32 %2, ptr %8, align 4, !tbaa !4
  store i32 %3, ptr %9, align 4, !tbaa !4
  store ptr %4, ptr %10, align 8, !tbaa !22
  call void @llvm.lifetime.start.p0(i64 8, ptr %11) #8
  %12 = load ptr, ptr %10, align 8, !tbaa !22
  %13 = load i32, ptr %9, align 4, !tbaa !4
  %14 = mul nsw i32 3, %13
  %15 = sext i32 %14 to i64
  %16 = sub i64 0, %15
  %17 = getelementptr inbounds i8, ptr %12, i64 %16
  store ptr %17, ptr %11, align 8, !tbaa !22
  br label %18

18:                                               ; preds = %22, %5
  %19 = load ptr, ptr %6, align 8, !tbaa !22
  %20 = load ptr, ptr %11, align 8, !tbaa !22
  %21 = icmp ult ptr %19, %20
  br i1 %21, label %22, label %79

22:                                               ; preds = %18
  %23 = load ptr, ptr %7, align 8, !tbaa !22
  %24 = load i64, ptr %23, align 8, !tbaa !56
  %25 = ashr i64 %24, 56
  %26 = add nsw i64 %25, 128
  %27 = trunc i64 %26 to i8
  %28 = load ptr, ptr %6, align 8, !tbaa !22
  store i8 %27, ptr %28, align 1, !tbaa !39
  %29 = load i32, ptr %8, align 4, !tbaa !4
  %30 = load ptr, ptr %7, align 8, !tbaa !22
  %31 = sext i32 %29 to i64
  %32 = getelementptr inbounds i8, ptr %30, i64 %31
  store ptr %32, ptr %7, align 8, !tbaa !22
  %33 = load i32, ptr %9, align 4, !tbaa !4
  %34 = load ptr, ptr %6, align 8, !tbaa !22
  %35 = sext i32 %33 to i64
  %36 = getelementptr inbounds i8, ptr %34, i64 %35
  store ptr %36, ptr %6, align 8, !tbaa !22
  %37 = load ptr, ptr %7, align 8, !tbaa !22
  %38 = load i64, ptr %37, align 8, !tbaa !56
  %39 = ashr i64 %38, 56
  %40 = add nsw i64 %39, 128
  %41 = trunc i64 %40 to i8
  %42 = load ptr, ptr %6, align 8, !tbaa !22
  store i8 %41, ptr %42, align 1, !tbaa !39
  %43 = load i32, ptr %8, align 4, !tbaa !4
  %44 = load ptr, ptr %7, align 8, !tbaa !22
  %45 = sext i32 %43 to i64
  %46 = getelementptr inbounds i8, ptr %44, i64 %45
  store ptr %46, ptr %7, align 8, !tbaa !22
  %47 = load i32, ptr %9, align 4, !tbaa !4
  %48 = load ptr, ptr %6, align 8, !tbaa !22
  %49 = sext i32 %47 to i64
  %50 = getelementptr inbounds i8, ptr %48, i64 %49
  store ptr %50, ptr %6, align 8, !tbaa !22
  %51 = load ptr, ptr %7, align 8, !tbaa !22
  %52 = load i64, ptr %51, align 8, !tbaa !56
  %53 = ashr i64 %52, 56
  %54 = add nsw i64 %53, 128
  %55 = trunc i64 %54 to i8
  %56 = load ptr, ptr %6, align 8, !tbaa !22
  store i8 %55, ptr %56, align 1, !tbaa !39
  %57 = load i32, ptr %8, align 4, !tbaa !4
  %58 = load ptr, ptr %7, align 8, !tbaa !22
  %59 = sext i32 %57 to i64
  %60 = getelementptr inbounds i8, ptr %58, i64 %59
  store ptr %60, ptr %7, align 8, !tbaa !22
  %61 = load i32, ptr %9, align 4, !tbaa !4
  %62 = load ptr, ptr %6, align 8, !tbaa !22
  %63 = sext i32 %61 to i64
  %64 = getelementptr inbounds i8, ptr %62, i64 %63
  store ptr %64, ptr %6, align 8, !tbaa !22
  %65 = load ptr, ptr %7, align 8, !tbaa !22
  %66 = load i64, ptr %65, align 8, !tbaa !56
  %67 = ashr i64 %66, 56
  %68 = add nsw i64 %67, 128
  %69 = trunc i64 %68 to i8
  %70 = load ptr, ptr %6, align 8, !tbaa !22
  store i8 %69, ptr %70, align 1, !tbaa !39
  %71 = load i32, ptr %8, align 4, !tbaa !4
  %72 = load ptr, ptr %7, align 8, !tbaa !22
  %73 = sext i32 %71 to i64
  %74 = getelementptr inbounds i8, ptr %72, i64 %73
  store ptr %74, ptr %7, align 8, !tbaa !22
  %75 = load i32, ptr %9, align 4, !tbaa !4
  %76 = load ptr, ptr %6, align 8, !tbaa !22
  %77 = sext i32 %75 to i64
  %78 = getelementptr inbounds i8, ptr %76, i64 %77
  store ptr %78, ptr %6, align 8, !tbaa !22
  br label %18, !llvm.loop !108

79:                                               ; preds = %18
  br label %80

80:                                               ; preds = %84, %79
  %81 = load ptr, ptr %6, align 8, !tbaa !22
  %82 = load ptr, ptr %10, align 8, !tbaa !22
  %83 = icmp ult ptr %81, %82
  br i1 %83, label %84, label %99

84:                                               ; preds = %80
  %85 = load ptr, ptr %7, align 8, !tbaa !22
  %86 = load i64, ptr %85, align 8, !tbaa !56
  %87 = ashr i64 %86, 56
  %88 = add nsw i64 %87, 128
  %89 = trunc i64 %88 to i8
  %90 = load ptr, ptr %6, align 8, !tbaa !22
  store i8 %89, ptr %90, align 1, !tbaa !39
  %91 = load i32, ptr %8, align 4, !tbaa !4
  %92 = load ptr, ptr %7, align 8, !tbaa !22
  %93 = sext i32 %91 to i64
  %94 = getelementptr inbounds i8, ptr %92, i64 %93
  store ptr %94, ptr %7, align 8, !tbaa !22
  %95 = load i32, ptr %9, align 4, !tbaa !4
  %96 = load ptr, ptr %6, align 8, !tbaa !22
  %97 = sext i32 %95 to i64
  %98 = getelementptr inbounds i8, ptr %96, i64 %97
  store ptr %98, ptr %6, align 8, !tbaa !22
  br label %80, !llvm.loop !109

99:                                               ; preds = %80
  call void @llvm.lifetime.end.p0(i64 8, ptr %11) #8
  ret void
}