; Function Attrs: nofree norecurse nosync nounwind memory(argmem: readwrite) uwtable
define internal void @conv_AV_SAMPLE_FMT_S64_to_AV_SAMPLE_FMT_U8(ptr noundef writeonly captures(address) %0, ptr noundef readonly captures(none) %1, i32 noundef %2, i32 noundef %3, ptr noundef readnone captures(address) %4) #4 {
  %6 = mul nsw i32 %3, 3
  %7 = sext i32 %6 to i64
  %8 = sub nsw i64 0, %7
  %9 = getelementptr inbounds i8, ptr %4, i64 %8
  %10 = icmp ult ptr %0, %9
  br i1 %10, label %.lr.ph, label %.preheader

.lr.ph:                                           ; preds = %5
  %11 = sext i32 %2 to i64
  %12 = sext i32 %3 to i64
  br label %16

.preheader:                                       ; preds = %16, %5
  %.035.lcssa = phi ptr [ %1, %5 ], [ %39, %16 ]
  %.0.lcssa = phi ptr [ %0, %5 ], [ %40, %16 ]
  %13 = icmp ult ptr %.0.lcssa, %4
  br i1 %13, label %.lr.ph42, label %._crit_edge

.lr.ph42:                                         ; preds = %.preheader
  %14 = sext i32 %2 to i64
  %15 = sext i32 %3 to i64
  br label %42

16:                                               ; preds = %.lr.ph, %16
  %.038 = phi ptr [ %0, %.lr.ph ], [ %40, %16 ]
  %.03537 = phi ptr [ %1, %.lr.ph ], [ %39, %16 ]
  %17 = load i64, ptr %.03537, align 8, !tbaa !46
  %18 = lshr i64 %17, 56
  %19 = trunc nuw i64 %18 to i8
  %20 = xor i8 %19, -128
  store i8 %20, ptr %.038, align 1, !tbaa !29
  %21 = getelementptr inbounds i8, ptr %.03537, i64 %11
  %22 = getelementptr inbounds i8, ptr %.038, i64 %12
  %23 = load i64, ptr %21, align 8, !tbaa !46
  %24 = lshr i64 %23, 56
  %25 = trunc nuw i64 %24 to i8
  %26 = xor i8 %25, -128
  store i8 %26, ptr %22, align 1, !tbaa !29
  %27 = getelementptr inbounds i8, ptr %21, i64 %11
  %28 = getelementptr inbounds i8, ptr %22, i64 %12
  %29 = load i64, ptr %27, align 8, !tbaa !46
  %30 = lshr i64 %29, 56
  %31 = trunc nuw i64 %30 to i8
  %32 = xor i8 %31, -128
  store i8 %32, ptr %28, align 1, !tbaa !29
  %33 = getelementptr inbounds i8, ptr %27, i64 %11
  %34 = getelementptr inbounds i8, ptr %28, i64 %12
  %35 = load i64, ptr %33, align 8, !tbaa !46
  %36 = lshr i64 %35, 56
  %37 = trunc nuw i64 %36 to i8
  %38 = xor i8 %37, -128
  store i8 %38, ptr %34, align 1, !tbaa !29
  %39 = getelementptr inbounds i8, ptr %33, i64 %11
  %40 = getelementptr inbounds i8, ptr %34, i64 %12
  %41 = icmp ult ptr %40, %9
  br i1 %41, label %16, label %.preheader, !llvm.loop !98

42:                                               ; preds = %.lr.ph42, %42
  %.141 = phi ptr [ %.0.lcssa, %.lr.ph42 ], [ %48, %42 ]
  %.13640 = phi ptr [ %.035.lcssa, %.lr.ph42 ], [ %47, %42 ]
  %43 = load i64, ptr %.13640, align 8, !tbaa !46
  %44 = lshr i64 %43, 56
  %45 = trunc nuw i64 %44 to i8
  %46 = xor i8 %45, -128
  store i8 %46, ptr %.141, align 1, !tbaa !29
  %47 = getelementptr inbounds i8, ptr %.13640, i64 %14
  %48 = getelementptr inbounds i8, ptr %.141, i64 %15
  %49 = icmp ult ptr %48, %4
  br i1 %49, label %42, label %._crit_edge, !llvm.loop !99

._crit_edge:                                      ; preds = %42, %.preheader
  ret void
}